target datalayout = "e-m:e-p270:32:32-p271:32:32-p272:64:64-i64:64-i128:128-f80:128-n8:16:32:64-S128"
target triple = "x86_64-pc-linux-gnu"

%struct.MemoizeState = type { %struct.ScanState, i32, i32, ptr, ptr, ptr, ptr, ptr, ptr, ptr, ptr, i64, i64, ptr, %struct.dlist_head, ptr, ptr, i8, i8, %struct.MemoizeInstrumentation, ptr, ptr }
%struct.ScanState = type { %struct.PlanState, ptr, ptr, ptr }
%struct.PlanState = type { i32, ptr, ptr, ptr, ptr, ptr, ptr, ptr, ptr, ptr, ptr, ptr, ptr, ptr, ptr, ptr, ptr, ptr, i8, ptr, ptr, ptr, ptr, ptr, i8, i8, i8, i8, i8, i8, i8, i8 }
%struct.dlist_head = type { %struct.dlist_node }
%struct.dlist_node = type { ptr, ptr }
%struct.MemoizeInstrumentation = type { i64, i64, i64, i64, i64 }
%struct.memoize_hash = type { i64, i32, i32, i32, ptr, ptr, ptr }

; Function Attrs: inlinehint nounwind uwtable
define internal void @dlist_init(ptr noundef %0) #2 {
  %2 = alloca ptr, align 8
  store ptr %0, ptr %2, align 8
  %3 = load ptr, ptr %2, align 8
  %4 = getelementptr inbounds nuw %struct.dlist_head, ptr %3, i32 0, i32 0
  %5 = load ptr, ptr %2, align 8
  %6 = getelementptr inbounds nuw %struct.dlist_head, ptr %5, i32 0, i32 0
  %7 = getelementptr inbounds nuw %struct.dlist_node, ptr %6, i32 0, i32 0
  store ptr %4, ptr %7, align 8
  %8 = load ptr, ptr %2, align 8
  %9 = getelementptr inbounds nuw %struct.dlist_head, ptr %8, i32 0, i32 0
  %10 = getelementptr inbounds nuw %struct.dlist_node, ptr %9, i32 0, i32 1
  store ptr %4, ptr %10, align 8
  ret void
}

; Function Attrs: nounwind uwtable
define internal void @cache_purge_all(ptr noundef %0) #0 {
  %2 = alloca ptr, align 8
  %3 = alloca i64, align 8
  store ptr %0, ptr %2, align 8
  call void @llvm.lifetime.start.p0(i64 8, ptr %3) #9
  store i64 0, ptr %3, align 8
  %4 = load ptr, ptr %2, align 8
  %5 = getelementptr inbounds nuw %struct.MemoizeState, ptr %4, i32 0, i32 3
  %6 = load ptr, ptr %5, align 8
  %7 = icmp ne ptr %6, null
  br i1 %7, label %8, label %15

8:                                                ; preds = %1
  %9 = load ptr, ptr %2, align 8
  %10 = getelementptr inbounds nuw %struct.MemoizeState, ptr %9, i32 0, i32 3
  %11 = load ptr, ptr %10, align 8
  %12 = getelementptr inbounds nuw %struct.memoize_hash, ptr %11, i32 0, i32 1
  %13 = load i32, ptr %12, align 8
  %14 = zext i32 %13 to i64
  store i64 %14, ptr %3, align 8
  br label %15

15:                                               ; preds = %8, %1
  %16 = load ptr, ptr %2, align 8
  %17 = getelementptr inbounds nuw %struct.MemoizeState, ptr %16, i32 0, i32 13
  %18 = load ptr, ptr %17, align 8
  call void @MemoryContextReset(ptr noundef %18)
  %19 = load ptr, ptr %2, align 8
  %20 = getelementptr inbounds nuw %struct.MemoizeState, ptr %19, i32 0, i32 3
  store ptr null, ptr %20, align 8
  %21 = load ptr, ptr %2, align 8
  %22 = getelementptr inbounds nuw %struct.MemoizeState, ptr %21, i32 0, i32 14
  call void @dlist_init(ptr noundef %22)
  %23 = load ptr, ptr %2, align 8
  %24 = getelementptr inbounds nuw %struct.MemoizeState, ptr %23, i32 0, i32 15
  store ptr null, ptr %24, align 8
  %25 = load ptr, ptr %2, align 8
  %26 = getelementptr inbounds nuw %struct.MemoizeState, ptr %25, i32 0, i32 16
  store ptr null, ptr %26, align 8
  %27 = load ptr, ptr %2, align 8
  %28 = getelementptr inbounds nuw %struct.MemoizeState, ptr %27, i32 0, i32 11
  store i64 0, ptr %28, align 8
  %29 = load i64, ptr %3, align 8
  %30 = load ptr, ptr %2, align 8
  %31 = getelementptr inbounds nuw %struct.MemoizeState, ptr %30, i32 0, i32 19
  %32 = getelementptr inbounds nuw %struct.MemoizeInstrumentation, ptr %31, i32 0, i32 2
  %33 = load i64, ptr %32, align 8
  %34 = add i64 %33, %29
  store i64 %34, ptr %32, align 8
  call void @llvm.lifetime.end.p0(i64 8, ptr %3) #9
  ret void
}

; Function Attrs: nounwind uwtable
define dso_local void @ExecReScanMemoize(ptr noundef %0) #0 {
  %2 = alloca ptr, align 8
  %3 = alloca ptr, align 8
  store ptr %0, ptr %2, align 8
  call void @llvm.lifetime.start.p0(i64 8, ptr %3) #9
  %4 = load ptr, ptr %2, align 8
  %5 = getelementptr inbounds nuw %struct.PlanState, ptr %4, i32 0, i32 9
  %6 = load ptr, ptr %5, align 8
  store ptr %6, ptr %3, align 8
  %7 = load ptr, ptr %2, align 8
  %8 = getelementptr inbounds nuw %struct.MemoizeState, ptr %7, i32 0, i32 1
  store i32 1, ptr %8, align 8
  %9 = load ptr, ptr %2, align 8
  %10 = getelementptr inbounds nuw %struct.MemoizeState, ptr %9, i32 0, i32 16
  store ptr null, ptr %10, align 8
  %11 = load ptr, ptr %2, align 8
  %12 = getelementptr inbounds nuw %struct.MemoizeState, ptr %11, i32 0, i32 15
  store ptr null, ptr %12, align 8
  %13 = load ptr, ptr %3, align 8
  %14 = getelementptr inbounds nuw %struct.PlanState, ptr %13, i32 0, i32 13
  %15 = load ptr, ptr %14, align 8
  %16 = icmp eq ptr %15, null
  br i1 %16, label %17, label %19

17:                                               ; preds = %1
  %18 = load ptr, ptr %3, align 8
  call void @ExecReScan(ptr noundef %18)
  br label %19

19:                                               ; preds = %17, %1
  %20 = load ptr, ptr %3, align 8
  %21 = getelementptr inbounds nuw %struct.PlanState, ptr %20, i32 0, i32 13
  %22 = load ptr, ptr %21, align 8
  %23 = load ptr, ptr %2, align 8
  %24 = getelementptr inbounds nuw %struct.MemoizeState, ptr %23, i32 0, i32 21
  %25 = load ptr, ptr %24, align 8
  %26 = call zeroext i1 @bms_nonempty_difference(ptr noundef %22, ptr noundef %25)
  br i1 %26, label %27, label %29

27:                                               ; preds = %19
  %28 = load ptr, ptr %2, align 8
  call void @cache_purge_all(ptr noundef %28)
  br label %29

29:                                               ; preds = %27, %19
  call void @llvm.lifetime.end.p0(i64 8, ptr %3) #9
  ret void
}