; Function Attrs: nounwind uwtable
define dso_local void @ExecReScanMemoize(ptr noundef initializes((224, 228), (336, 352)) %0) local_unnamed_addr #0 {
  %2 = getelementptr inbounds nuw i8, ptr %0, i64 72
  %3 = load ptr, ptr %2, align 8
  %4 = getelementptr inbounds nuw i8, ptr %0, i64 224
  store i32 1, ptr %4, align 8
  %5 = getelementptr inbounds nuw i8, ptr %0, i64 336
  %6 = getelementptr inbounds nuw i8, ptr %3, i64 104
  tail call void @llvm.memset.p0.i64(ptr noundef nonnull align 8 dereferenceable(16) %5, i8 0, i64 16, i1 false)
  %7 = load ptr, ptr %6, align 8
  %8 = icmp eq ptr %7, null
  br i1 %8, label %9, label %10

9:                                                ; preds = %1
  tail call void @ExecReScan(ptr noundef nonnull %3) #11
  %.pre = load ptr, ptr %6, align 8
  br label %10

10:                                               ; preds = %9, %1
  %11 = phi ptr [ %.pre, %9 ], [ %7, %1 ]
  %12 = getelementptr inbounds nuw i8, ptr %0, i64 408
  %13 = load ptr, ptr %12, align 8
  %14 = tail call zeroext i1 @bms_nonempty_difference(ptr noundef %11, ptr noundef %13) #11
  br i1 %14, label %15, label %30

15:                                               ; preds = %10
  %16 = getelementptr inbounds nuw i8, ptr %0, i64 232
  %17 = load ptr, ptr %16, align 8
  %.not.i = icmp eq ptr %17, null
  br i1 %.not.i, label %cache_purge_all.exit, label %18

18:                                               ; preds = %15
  %19 = getelementptr inbounds nuw i8, ptr %17, i64 8
  %20 = load i32, ptr %19, align 8
  %21 = zext i32 %20 to i64
  br label %cache_purge_all.exit

cache_purge_all.exit:                             ; preds = %15, %18
  %.0.i = phi i64 [ %21, %18 ], [ 0, %15 ]
  %22 = getelementptr inbounds nuw i8, ptr %0, i64 312
  %23 = load ptr, ptr %22, align 8
  tail call void @MemoryContextReset(ptr noundef %23) #11
  store ptr null, ptr %16, align 8
  %24 = getelementptr inbounds nuw i8, ptr %0, i64 320
  store ptr %24, ptr %24, align 8
  %25 = getelementptr inbounds nuw i8, ptr %0, i64 328
  store ptr %24, ptr %25, align 8
  %26 = getelementptr inbounds nuw i8, ptr %0, i64 296
  store i64 0, ptr %26, align 8
  %27 = getelementptr inbounds nuw i8, ptr %0, i64 376
  tail call void @llvm.memset.p0.i64(ptr noundef nonnull align 8 dereferenceable(16) %5, i8 0, i64 16, i1 false)
  %28 = load i64, ptr %27, align 8
  %29 = add i64 %28, %.0.i
  store i64 %29, ptr %27, align 8
  br label %30

30:                                               ; preds = %cache_purge_all.exit, %10
  ret void
}